; Function Attrs: nounwind uwtable
define range(i32 0, 2) i32 @BrotliDecoderAttachDictionary(ptr noundef captures(none) %0, i32 noundef %1, i64 noundef %2, ptr noundef %3) local_unnamed_addr #1 {
  %5 = getelementptr inbounds nuw i8, ptr %0, i64 800
  %6 = load i32, ptr %0, align 8, !tbaa !3
  %.not = icmp eq i32 %6, 0
  br i1 %.not, label %7, label %AttachCompoundDictionary.exit.thread

7:                                                ; preds = %4
  %8 = load ptr, ptr %5, align 8, !tbaa !18
  %9 = load i32, ptr %8, align 8, !tbaa !19
  %10 = zext i32 %9 to i64
  %11 = tail call i32 @BrotliSharedDictionaryAttach(ptr noundef nonnull %8, i32 noundef %1, i64 noundef %2, ptr noundef %3) #22
  %.not16 = icmp eq i32 %11, 0
  br i1 %.not16, label %AttachCompoundDictionary.exit.thread, label %.preheader

.preheader:                                       ; preds = %7
  %12 = getelementptr inbounds nuw i8, ptr %0, i64 48
  %13 = load ptr, ptr %5, align 8, !tbaa !18
  %14 = load i32, ptr %13, align 8, !tbaa !19
  %15 = icmp ult i32 %9, %14
  br i1 %15, label %.lr.ph, label %AttachCompoundDictionary.exit.thread

.lr.ph:                                           ; preds = %.preheader
  %16 = getelementptr inbounds nuw i8, ptr %0, i64 808
  %17 = getelementptr inbounds nuw i8, ptr %0, i64 64
  br label %18

18:                                               ; preds = %.lr.ph, %40
  %19 = phi ptr [ %13, %.lr.ph ], [ %41, %40 ]
  %.01520 = phi i64 [ %10, %.lr.ph ], [ %54, %40 ]
  %20 = getelementptr inbounds nuw i8, ptr %19, i64 128
  %21 = getelementptr inbounds nuw [15 x ptr], ptr %20, i64 0, i64 %.01520
  %22 = load ptr, ptr %21, align 8, !tbaa !24
  %23 = getelementptr inbounds nuw i8, ptr %19, i64 8
  %24 = getelementptr inbounds nuw [15 x i64], ptr %23, i64 0, i64 %.01520
  %25 = load i64, ptr %24, align 8, !tbaa !25
  %26 = load i32, ptr %0, align 8, !tbaa !3
  %.not.i = icmp eq i32 %26, 0
  br i1 %.not.i, label %27, label %AttachCompoundDictionary.exit.thread

27:                                               ; preds = %18
  %28 = load ptr, ptr %16, align 8, !tbaa !26
  %.not28.i = icmp eq ptr %28, null
  br i1 %.not28.i, label %29, label %38

29:                                               ; preds = %27
  %30 = load ptr, ptr %12, align 8, !tbaa !27
  %31 = load ptr, ptr %17, align 8, !tbaa !17
  %32 = tail call ptr %30(ptr noundef %31, i64 noundef 480) #22
  %.not29.i = icmp eq ptr %32, null
  br i1 %.not29.i, label %AttachCompoundDictionary.exit.thread, label %.thread.i

.thread.i:                                        ; preds = %29
  store i32 0, ptr %32, align 8, !tbaa !28
  %33 = getelementptr inbounds nuw i8, ptr %32, i64 4
  store i32 0, ptr %33, align 4, !tbaa !30
  %34 = getelementptr inbounds nuw i8, ptr %32, i64 16
  store i32 0, ptr %34, align 8, !tbaa !31
  %35 = getelementptr inbounds nuw i8, ptr %32, i64 20
  store i32 0, ptr %35, align 4, !tbaa !32
  %36 = getelementptr inbounds nuw i8, ptr %32, i64 216
  store i32 -1, ptr %36, align 8, !tbaa !33
  %37 = getelementptr inbounds nuw i8, ptr %32, i64 152
  store i32 0, ptr %37, align 8, !tbaa !34
  store ptr %32, ptr %16, align 8, !tbaa !26
  %.pre27 = load ptr, ptr %5, align 8, !tbaa !18
  br label %40

38:                                               ; preds = %27
  %.pre.i = load i32, ptr %28, align 8, !tbaa !28
  %39 = icmp eq i32 %.pre.i, 15
  br i1 %39, label %AttachCompoundDictionary.exit.thread, label %._crit_edge

._crit_edge:                                      ; preds = %38
  %.phi.trans.insert = getelementptr inbounds nuw i8, ptr %28, i64 4
  %.pre = load i32, ptr %.phi.trans.insert, align 4, !tbaa !30
  br label %40

40:                                               ; preds = %._crit_edge, %.thread.i
  %41 = phi ptr [ %.pre27, %.thread.i ], [ %19, %._crit_edge ]
  %42 = phi i32 [ 0, %.thread.i ], [ %.pre, %._crit_edge ]
  %.031.i = phi ptr [ %32, %.thread.i ], [ %28, %._crit_edge ]
  %43 = phi i32 [ 0, %.thread.i ], [ %.pre.i, %._crit_edge ]
  %44 = getelementptr inbounds nuw i8, ptr %.031.i, i64 24
  %45 = sext i32 %43 to i64
  %46 = getelementptr inbounds [16 x ptr], ptr %44, i64 0, i64 %45
  store ptr %22, ptr %46, align 8, !tbaa !24
  %47 = add nsw i32 %43, 1
  store i32 %47, ptr %.031.i, align 8, !tbaa !28
  %48 = trunc i64 %25 to i32
  %49 = getelementptr inbounds nuw i8, ptr %.031.i, i64 4
  %50 = add nsw i32 %42, %48
  store i32 %50, ptr %49, align 4, !tbaa !30
  %51 = getelementptr inbounds nuw i8, ptr %.031.i, i64 152
  %52 = sext i32 %47 to i64
  %53 = getelementptr inbounds [16 x i32], ptr %51, i64 0, i64 %52
  store i32 %50, ptr %53, align 4, !tbaa !34
  %54 = add nuw nsw i64 %.01520, 1
  %55 = load i32, ptr %41, align 8, !tbaa !19
  %56 = zext i32 %55 to i64
  %57 = icmp samesign ult i64 %54, %56
  br i1 %57, label %18, label %AttachCompoundDictionary.exit.thread, !llvm.loop !35

AttachCompoundDictionary.exit.thread:             ; preds = %40, %18, %29, %38, %.preheader, %7, %4
  %.0 = phi i32 [ 0, %4 ], [ 0, %7 ], [ 1, %.preheader ], [ 1, %40 ], [ 0, %18 ], [ 0, %29 ], [ 0, %38 ]
  ret i32 %.0
}